Certificate:
    Data:
        Version: 3 (0x2)
        Serial Number:
            ba:38:d1:67:71:79:93:14:b4:77:e7:6a:86:bb:7b:a8
        Signature Algorithm: ecdsa-with-SHA512
        Issuer: CN=74.235.42.100
        Validity
            Not Before: Jan 31 23:21:44 2024 GMT
            Not After : Jan 15 23:21:44 2027 GMT
        Subject: CN=cccccccccccc
        Subject Public Key Info:
            Public Key Algorithm: id-ecPublicKey
                Public-Key: (384 bit)
                pub:
                    04:56:91:ec:0f:d4:fd:c0:c7:47:a3:d0:eb:76:c0:
                    5c:ae:ec:2b:09:a0:01:3e:1c:52:a3:fb:55:ce:13:
                    ab:89:b2:fa:41:d4:04:f4:39:3b:cd:0d:8a:00:0b:
                    3c:b0:54:a2:05:e9:15:11:1c:d1:46:b4:17:41:e4:
                    d1:b8:a8:c0:44:5e:b9:ec:3a:32:15:14:eb:c3:20:
                    f9:3a:44:fe:86:c2:8a:8d:5f:c0:61:71:6e:01:7e:
                    3f:50:ea:fb:2c:77:51
                ASN1 OID: secp384r1
                NIST CURVE: P-384
        X509v3 extensions:
            X509v3 Basic Constraints: 
                CA:FALSE
            X509v3 Subject Key Identifier: 
                7C:7B:D7:15:53:DB:BE:A2:66:81:DA:FD:78:61:4E:98:84:65:1A:DE
            X509v3 Authority Key Identifier: 
                keyid:79:28:BB:6A:A9:FA:D3:26:92:7C:9C:A7:1A:0A:ED:5E:27:9E:9D:C2
                DirName:/CN=74.235.42.100
                serial:55:41:6C:04:73:33:9F:81:3F:9A:B6:5B:90:08:AD:E2:02:BA:2E:51

            X509v3 Extended Key Usage: 
                TLS Web Client Authentication
            X509v3 Key Usage: 
                Digital Signature
    Signature Algorithm: ecdsa-with-SHA512
         30:66:02:31:00:fa:1c:39:52:f9:d9:62:dd:64:4b:cf:8c:eb:
         79:84:53:7e:1e:31:49:dd:ce:ae:8d:b7:d8:e8:51:61:7a:10:
         10:01:c7:d8:78:53:70:eb:f6:d5:09:82:2b:6b:17:d3:91:02:
         31:00:b4:08:41:7d:bf:9b:ff:25:b6:49:3d:01:8e:91:a5:94:
         d3:93:85:19:81:c1:4c:10:aa:5c:ac:52:b5:d0:5b:f2:e5:85:
         3a:b7:aa:5f:25:15:a7:da:42:c4:ae:81:61:5d
-----BEGIN CERTIFICATE-----
MIICETCCAZagAwIBAgIRALo40WdxeZMUtHfnaoa7e6gwCgYIKoZIzj0EAwQwGDEW
MBQGA1UEAwwNNzQuMjM1LjQyLjEwMDAeFw0yNDAxMzEyMzIxNDRaFw0yNzAxMTUy
MzIxNDRaMBcxFTATBgNVBAMMDGNjY2NjY2NjY2NjYzB2MBAGByqGSM49AgEGBSuB
BAAiA2IABFaR7A/U/cDHR6PQ63bAXK7sKwmgAT4cUqP7Vc4Tq4my+kHUBPQ5O80N
igALPLBUogXpFREc0Ua0F0Hk0biowEReuew6MhUU68Mg+TpE/obCio1fwGFxbgF+
P1Dq+yx3UaOBpDCBoTAJBgNVHRMEAjAAMB0GA1UdDgQWBBR8e9cVU9u+omaB2v14
YU6YhGUa3jBTBgNVHSMETDBKgBR5KLtqqfrTJpJ8nKcaCu1eJ56dwqEcpBowGDEW
MBQGA1UEAwwNNzQuMjM1LjQyLjEwMIIUVUFsBHMzn4E/mrZbkAit4gK6LlEwEwYD
VR0lBAwwCgYIKwYBBQUHAwIwCwYDVR0PBAQDAgeAMAoGCCqGSM49BAMEA2kAMGYC
MQD6HDlS+dli3WRLz4zreYRTfh4xSd3Oro232OhRYXoQEAHH2HhTcOv21QmCK2sX
05ECMQC0CEF9v5v/JbZJPQGOkaWU05OFGYHBTBCqXKxStdBb8uWFOreqXyUVp9pC
xK6BYV0=
-----END CERTIFICATE-----
