Certificate:
    Data:
        Version: 3 (0x2)
        Serial Number:
            99:1b:6d:79:a6:80:f5:d8:5b:f0:e9:fd:77:b1:09:64
        Signature Algorithm: ecdsa-with-SHA512
        Issuer: CN=74.235.42.100
        Validity
            Not Before: Jan 31 22:18:29 2024 GMT
            Not After : Jan 15 22:18:29 2027 GMT
        Subject: CN=david
        Subject Public Key Info:
            Public Key Algorithm: id-ecPublicKey
                Public-Key: (384 bit)
                pub:
                    04:94:af:84:20:b0:0c:cc:6d:68:66:f2:23:05:0d:
                    53:93:68:3f:cd:c2:77:34:b2:d7:a1:33:29:f8:68:
                    a3:a9:7c:71:11:1c:ec:e4:0d:7b:3c:8f:7e:89:83:
                    08:93:81:ef:bc:94:8b:da:f4:7b:0f:8c:ab:67:a3:
                    63:46:d2:16:b3:c7:7e:ad:2d:4a:70:11:2e:8f:fe:
                    c7:74:be:de:bc:62:c2:5c:a4:1a:2b:6d:a5:c8:c6:
                    01:56:c5:57:33:e1:d0
                ASN1 OID: secp384r1
                NIST CURVE: P-384
        X509v3 extensions:
            X509v3 Basic Constraints: 
                CA:FALSE
            X509v3 Subject Key Identifier: 
                8B:51:90:51:2E:27:4A:2E:BE:F0:82:64:94:42:03:AE:19:A9:C9:D2
            X509v3 Authority Key Identifier: 
                keyid:79:28:BB:6A:A9:FA:D3:26:92:7C:9C:A7:1A:0A:ED:5E:27:9E:9D:C2
                DirName:/CN=74.235.42.100
                serial:55:41:6C:04:73:33:9F:81:3F:9A:B6:5B:90:08:AD:E2:02:BA:2E:51

            X509v3 Extended Key Usage: 
                TLS Web Client Authentication
            X509v3 Key Usage: 
                Digital Signature
    Signature Algorithm: ecdsa-with-SHA512
         30:65:02:30:27:dc:e1:67:e0:af:93:03:f5:f4:a8:0a:56:1b:
         1c:f9:d3:c4:7f:13:9c:54:2f:b2:ff:1b:2f:75:93:ca:b3:2a:
         e2:7f:74:1a:29:e0:6b:6e:a0:f8:00:8e:0a:36:26:b6:02:31:
         00:88:28:95:b3:2c:94:be:c7:70:fa:56:5e:d3:ae:23:eb:f6:
         e7:12:7a:ec:73:87:fa:ad:fb:1b:21:a2:b5:4a:4f:e2:d6:76:
         87:58:82:f2:6e:da:47:00:94:49:0e:78:be
-----BEGIN CERTIFICATE-----
MIICCTCCAY+gAwIBAgIRAJkbbXmmgPXYW/Dp/XexCWQwCgYIKoZIzj0EAwQwGDEW
MBQGA1UEAwwNNzQuMjM1LjQyLjEwMDAeFw0yNDAxMzEyMjE4MjlaFw0yNzAxMTUy
MjE4MjlaMBAxDjAMBgNVBAMMBWRhdmlkMHYwEAYHKoZIzj0CAQYFK4EEACIDYgAE
lK+EILAMzG1oZvIjBQ1Tk2g/zcJ3NLLXoTMp+GijqXxxERzs5A17PI9+iYMIk4Hv
vJSL2vR7D4yrZ6NjRtIWs8d+rS1KcBEuj/7HdL7evGLCXKQaK22lyMYBVsVXM+HQ
o4GkMIGhMAkGA1UdEwQCMAAwHQYDVR0OBBYEFItRkFEuJ0ouvvCCZJRCA64ZqcnS
MFMGA1UdIwRMMEqAFHkou2qp+tMmknycpxoK7V4nnp3CoRykGjAYMRYwFAYDVQQD
DA03NC4yMzUuNDIuMTAwghRVQWwEczOfgT+atluQCK3iArouUTATBgNVHSUEDDAK
BggrBgEFBQcDAjALBgNVHQ8EBAMCB4AwCgYIKoZIzj0EAwQDaAAwZQIwJ9zhZ+Cv
kwP19KgKVhsc+dPEfxOcVC+y/xsvdZPKsyrif3QaKeBrbqD4AI4KNia2AjEAiCiV
syyUvsdw+lZe064j6/bnEnrsc4f6rfsbIaK1Sk/i1naHWILybtpHAJRJDni+
-----END CERTIFICATE-----
