Certificate:
    Data:
        Version: 3 (0x2)
        Serial Number:
            2b:97:f6:27:a1:dd:15:20:54:cb:18:aa:0f:56:32:28
        Signature Algorithm: ecdsa-with-SHA512
        Issuer: CN=74.235.42.100
        Validity
            Not Before: Jan 31 23:32:29 2024 GMT
            Not After : Jan 15 23:32:29 2027 GMT
        Subject: CN=eeeeeeeeeeee
        Subject Public Key Info:
            Public Key Algorithm: id-ecPublicKey
                Public-Key: (384 bit)
                pub:
                    04:0a:0b:35:88:dc:8a:d8:a6:72:fc:2f:17:08:9f:
                    c8:6b:18:37:32:f9:a2:3c:33:cf:bb:b4:db:35:0f:
                    52:f6:5f:91:53:9f:1e:91:a8:52:ee:03:31:23:2b:
                    d3:4a:1b:ab:4a:8e:3e:6e:eb:1a:78:59:08:53:ff:
                    02:02:52:b0:de:67:3b:6a:48:5e:de:aa:ef:32:db:
                    1b:81:ba:9f:c8:f9:f0:35:10:a1:f3:08:e7:6e:6e:
                    d0:a1:13:1e:da:61:7b
                ASN1 OID: secp384r1
                NIST CURVE: P-384
        X509v3 extensions:
            X509v3 Basic Constraints: 
                CA:FALSE
            X509v3 Subject Key Identifier: 
                AE:BC:B9:44:57:20:89:59:04:00:97:FD:FA:E4:DC:0B:4E:C1:5B:C8
            X509v3 Authority Key Identifier: 
                keyid:79:28:BB:6A:A9:FA:D3:26:92:7C:9C:A7:1A:0A:ED:5E:27:9E:9D:C2
                DirName:/CN=74.235.42.100
                serial:55:41:6C:04:73:33:9F:81:3F:9A:B6:5B:90:08:AD:E2:02:BA:2E:51

            X509v3 Extended Key Usage: 
                TLS Web Client Authentication
            X509v3 Key Usage: 
                Digital Signature
    Signature Algorithm: ecdsa-with-SHA512
         30:65:02:31:00:a4:aa:0d:f0:af:da:52:a6:80:1e:f4:03:0b:
         bb:c7:2d:60:ae:ad:7b:11:51:1b:3f:42:4b:97:e0:6b:5c:2c:
         e4:ee:5c:23:65:58:80:9f:7f:32:9e:b2:c9:63:84:ae:5c:02:
         30:7c:98:4b:6f:f8:b2:cc:89:e4:c4:6c:0a:e9:a2:ef:97:7d:
         4c:df:68:59:8e:dc:0b:06:b8:ac:33:b4:c0:97:78:07:b5:69:
         23:5f:98:c8:2b:41:c7:1e:b4:c8:a7:c1:87
-----BEGIN CERTIFICATE-----
MIICDzCCAZWgAwIBAgIQK5f2J6HdFSBUyxiqD1YyKDAKBggqhkjOPQQDBDAYMRYw
FAYDVQQDDA03NC4yMzUuNDIuMTAwMB4XDTI0MDEzMTIzMzIyOVoXDTI3MDExNTIz
MzIyOVowFzEVMBMGA1UEAwwMZWVlZWVlZWVlZWVlMHYwEAYHKoZIzj0CAQYFK4EE
ACIDYgAECgs1iNyK2KZy/C8XCJ/Iaxg3MvmiPDPPu7TbNQ9S9l+RU58ekahS7gMx
IyvTShurSo4+busaeFkIU/8CAlKw3mc7akhe3qrvMtsbgbqfyPnwNRCh8wjnbm7Q
oRMe2mF7o4GkMIGhMAkGA1UdEwQCMAAwHQYDVR0OBBYEFK68uURXIIlZBACX/frk
3AtOwVvIMFMGA1UdIwRMMEqAFHkou2qp+tMmknycpxoK7V4nnp3CoRykGjAYMRYw
FAYDVQQDDA03NC4yMzUuNDIuMTAwghRVQWwEczOfgT+atluQCK3iArouUTATBgNV
HSUEDDAKBggrBgEFBQcDAjALBgNVHQ8EBAMCB4AwCgYIKoZIzj0EAwQDaAAwZQIx
AKSqDfCv2lKmgB70Awu7xy1grq17EVEbP0JLl+BrXCzk7lwjZViAn38ynrLJY4Su
XAIwfJhLb/iyzInkxGwK6aLvl31M32hZjtwLBrisM7TAl3gHtWkjX5jIK0HHHrTI
p8GH
-----END CERTIFICATE-----
