Certificate:
    Data:
        Version: 3 (0x2)
        Serial Number:
            77:f9:b5:ac:56:32:b8:9a:43:fb:bd:3e:98:21:46:9a
        Signature Algorithm: ecdsa-with-SHA512
        Issuer: CN=74.235.42.100
        Validity
            Not Before: Jan 31 23:11:58 2024 GMT
            Not After : Jan 15 23:11:58 2027 GMT
        Subject: CN=jhvu
        Subject Public Key Info:
            Public Key Algorithm: id-ecPublicKey
                Public-Key: (384 bit)
                pub:
                    04:4b:dd:7a:c6:80:5f:f7:7d:f3:19:8b:7c:cc:46:
                    5a:7a:33:da:a5:5e:5c:5f:92:28:25:78:5e:15:55:
                    1a:2c:71:1a:cc:35:e9:76:5d:b6:86:06:b0:8d:94:
                    5b:9e:19:cb:e2:7c:39:49:84:6e:6f:48:3c:55:2f:
                    85:fa:5c:4f:f9:9c:8d:97:ee:c8:f3:58:2f:b4:c0:
                    85:c4:e8:98:05:8a:55:f5:1f:60:ac:a9:8d:80:dd:
                    7a:98:57:48:77:49:4a
                ASN1 OID: secp384r1
                NIST CURVE: P-384
        X509v3 extensions:
            X509v3 Basic Constraints: 
                CA:FALSE
            X509v3 Subject Key Identifier: 
                7D:CA:B8:B0:B4:44:35:24:16:1B:D0:05:ED:39:B8:57:1D:1F:4A:B0
            X509v3 Authority Key Identifier: 
                keyid:79:28:BB:6A:A9:FA:D3:26:92:7C:9C:A7:1A:0A:ED:5E:27:9E:9D:C2
                DirName:/CN=74.235.42.100
                serial:55:41:6C:04:73:33:9F:81:3F:9A:B6:5B:90:08:AD:E2:02:BA:2E:51

            X509v3 Extended Key Usage: 
                TLS Web Client Authentication
            X509v3 Key Usage: 
                Digital Signature
    Signature Algorithm: ecdsa-with-SHA512
         30:64:02:30:0e:5f:ca:43:11:0b:f0:b8:5f:17:69:1e:0a:45:
         f7:98:e5:f1:e2:85:ea:2a:6b:64:98:f7:d6:f6:ab:70:b3:31:
         bb:26:29:43:15:71:ed:61:99:68:c6:cf:38:51:9b:62:02:30:
         4e:4a:67:55:9f:de:0b:a9:15:d2:91:37:af:86:fe:34:3f:e9:
         26:45:9c:89:93:92:40:0b:46:64:b3:49:2b:ba:32:6b:c2:58:
         8e:1f:94:2f:67:79:5a:29:a7:72:9b:ee
-----BEGIN CERTIFICATE-----
MIICBjCCAY2gAwIBAgIQd/m1rFYyuJpD+70+mCFGmjAKBggqhkjOPQQDBDAYMRYw
FAYDVQQDDA03NC4yMzUuNDIuMTAwMB4XDTI0MDEzMTIzMTE1OFoXDTI3MDExNTIz
MTE1OFowDzENMAsGA1UEAwwEamh2dTB2MBAGByqGSM49AgEGBSuBBAAiA2IABEvd
esaAX/d98xmLfMxGWnoz2qVeXF+SKCV4XhVVGixxGsw16XZdtoYGsI2UW54Zy+J8
OUmEbm9IPFUvhfpcT/mcjZfuyPNYL7TAhcTomAWKVfUfYKypjYDdephXSHdJSqOB
pDCBoTAJBgNVHRMEAjAAMB0GA1UdDgQWBBR9yriwtEQ1JBYb0AXtObhXHR9KsDBT
BgNVHSMETDBKgBR5KLtqqfrTJpJ8nKcaCu1eJ56dwqEcpBowGDEWMBQGA1UEAwwN
NzQuMjM1LjQyLjEwMIIUVUFsBHMzn4E/mrZbkAit4gK6LlEwEwYDVR0lBAwwCgYI
KwYBBQUHAwIwCwYDVR0PBAQDAgeAMAoGCCqGSM49BAMEA2cAMGQCMA5fykMRC/C4
XxdpHgpF95jl8eKF6iprZJj31varcLMxuyYpQxVx7WGZaMbPOFGbYgIwTkpnVZ/e
C6kV0pE3r4b+ND/pJkWciZOSQAtGZLNJK7oya8JYjh+UL2d5Wimncpvu
-----END CERTIFICATE-----
