Certificate:
    Data:
        Version: 3 (0x2)
        Serial Number:
            b3:25:7c:9d:97:f6:e7:4e:c9:6f:6e:d9:45:19:92:91
        Signature Algorithm: ecdsa-with-SHA512
        Issuer: CN=74.235.42.100
        Validity
            Not Before: Jan 31 22:15:45 2024 GMT
            Not After : Jan 15 22:15:45 2027 GMT
        Subject: CN=Jmeky
        Subject Public Key Info:
            Public Key Algorithm: id-ecPublicKey
                Public-Key: (384 bit)
                pub:
                    04:6e:30:9d:41:ad:76:b0:df:f8:b7:af:13:7f:79:
                    8e:b0:25:12:b6:82:71:57:55:ff:7d:80:53:fa:04:
                    dc:4a:bd:0b:ac:7d:72:77:19:4f:6a:62:77:fe:7d:
                    ab:e0:3d:37:5e:d8:3b:54:65:f2:67:0d:7f:1b:06:
                    45:eb:2e:91:c5:b8:e3:57:e1:98:35:c0:4f:10:b9:
                    87:02:9b:ad:8f:87:d9:a6:08:7c:7a:11:ac:7c:e8:
                    17:ca:da:8e:bc:13:46
                ASN1 OID: secp384r1
                NIST CURVE: P-384
        X509v3 extensions:
            X509v3 Basic Constraints: 
                CA:FALSE
            X509v3 Subject Key Identifier: 
                9C:27:89:C1:CC:92:61:E7:E8:54:B1:9E:58:D9:3B:7D:07:50:00:37
            X509v3 Authority Key Identifier: 
                keyid:79:28:BB:6A:A9:FA:D3:26:92:7C:9C:A7:1A:0A:ED:5E:27:9E:9D:C2
                DirName:/CN=74.235.42.100
                serial:55:41:6C:04:73:33:9F:81:3F:9A:B6:5B:90:08:AD:E2:02:BA:2E:51

            X509v3 Extended Key Usage: 
                TLS Web Client Authentication
            X509v3 Key Usage: 
                Digital Signature
    Signature Algorithm: ecdsa-with-SHA512
         30:65:02:31:00:bd:60:b2:21:f3:b6:1a:d1:f0:b0:6f:bc:77:
         a5:24:7f:2c:d2:58:ff:f6:6a:37:c3:d2:70:8d:85:52:b6:2f:
         7e:e4:2b:78:0f:bc:c7:5a:ff:c6:4e:a1:ad:91:f7:9e:0e:02:
         30:0e:9c:3f:38:e1:dc:94:86:77:13:35:ab:ea:1f:b5:f3:46:
         d9:8e:54:da:f6:3b:29:1a:84:b4:1d:18:26:e6:fa:f7:ac:b7:
         c4:66:79:d8:e0:37:e5:99:9e:6d:a9:d8:8d
-----BEGIN CERTIFICATE-----
MIICCTCCAY+gAwIBAgIRALMlfJ2X9udOyW9u2UUZkpEwCgYIKoZIzj0EAwQwGDEW
MBQGA1UEAwwNNzQuMjM1LjQyLjEwMDAeFw0yNDAxMzEyMjE1NDVaFw0yNzAxMTUy
MjE1NDVaMBAxDjAMBgNVBAMMBUptZWt5MHYwEAYHKoZIzj0CAQYFK4EEACIDYgAE
bjCdQa12sN/4t68Tf3mOsCUStoJxV1X/fYBT+gTcSr0LrH1ydxlPamJ3/n2r4D03
Xtg7VGXyZw1/GwZF6y6RxbjjV+GYNcBPELmHAputj4fZpgh8ehGsfOgXytqOvBNG
o4GkMIGhMAkGA1UdEwQCMAAwHQYDVR0OBBYEFJwnicHMkmHn6FSxnljZO30HUAA3
MFMGA1UdIwRMMEqAFHkou2qp+tMmknycpxoK7V4nnp3CoRykGjAYMRYwFAYDVQQD
DA03NC4yMzUuNDIuMTAwghRVQWwEczOfgT+atluQCK3iArouUTATBgNVHSUEDDAK
BggrBgEFBQcDAjALBgNVHQ8EBAMCB4AwCgYIKoZIzj0EAwQDaAAwZQIxAL1gsiHz
thrR8LBvvHelJH8s0lj/9mo3w9JwjYVSti9+5Ct4D7zHWv/GTqGtkfeeDgIwDpw/
OOHclIZ3EzWr6h+180bZjlTa9jspGoS0HRgm5vr3rLfEZnnY4DflmZ5tqdiN
-----END CERTIFICATE-----
