Certificate:
    Data:
        Version: 3 (0x2)
        Serial Number:
            be:b2:bc:c9:1b:d6:d7:67:73:8f:34:05:68:cf:25:a5
        Signature Algorithm: ecdsa-with-SHA512
        Issuer: CN=74.235.42.100
        Validity
            Not Before: Jan 31 23:01:25 2024 GMT
            Not After : Jan 15 23:01:25 2027 GMT
        Subject: CN=kdjfg
        Subject Public Key Info:
            Public Key Algorithm: id-ecPublicKey
                Public-Key: (384 bit)
                pub:
                    04:24:f8:c4:01:c7:97:5c:b3:5c:9b:f5:19:75:5e:
                    12:3e:b6:7d:e5:4f:17:8b:da:0e:65:27:9f:3a:cd:
                    6e:02:e9:9d:fd:b9:ca:de:fd:32:8b:5f:e5:b6:0e:
                    13:fe:47:ef:1c:b8:70:82:d8:8c:39:90:d0:47:ea:
                    99:36:cb:f9:16:de:d5:33:2f:b4:85:9f:d9:cc:e9:
                    cf:c4:68:d0:51:e9:9d:68:40:43:8b:28:a8:08:de:
                    c0:6a:eb:d5:62:a7:98
                ASN1 OID: secp384r1
                NIST CURVE: P-384
        X509v3 extensions:
            X509v3 Basic Constraints: 
                CA:FALSE
            X509v3 Subject Key Identifier: 
                B7:DB:AE:78:69:EE:8F:31:1F:ED:2A:CA:0C:21:CC:7F:B2:1D:5F:E7
            X509v3 Authority Key Identifier: 
                keyid:79:28:BB:6A:A9:FA:D3:26:92:7C:9C:A7:1A:0A:ED:5E:27:9E:9D:C2
                DirName:/CN=74.235.42.100
                serial:55:41:6C:04:73:33:9F:81:3F:9A:B6:5B:90:08:AD:E2:02:BA:2E:51

            X509v3 Extended Key Usage: 
                TLS Web Client Authentication
            X509v3 Key Usage: 
                Digital Signature
    Signature Algorithm: ecdsa-with-SHA512
         30:65:02:31:00:f3:91:57:7a:d0:15:3c:65:16:12:06:d0:40:
         8f:55:83:1e:17:27:0c:da:78:40:13:3c:3f:f7:70:fe:69:59:
         a7:f2:b6:4b:11:e5:83:7c:2d:e6:f0:ce:50:bb:2b:87:6f:02:
         30:22:4f:ac:97:cd:fd:59:c8:80:4b:eb:ad:00:fa:69:46:4d:
         66:79:5a:6f:b0:3b:c6:d0:f9:70:fc:ed:b5:fe:64:69:5b:26:
         b6:4c:95:d3:cd:04:11:9f:2a:d9:a5:13:6e
-----BEGIN CERTIFICATE-----
MIICCTCCAY+gAwIBAgIRAL6yvMkb1tdnc480BWjPJaUwCgYIKoZIzj0EAwQwGDEW
MBQGA1UEAwwNNzQuMjM1LjQyLjEwMDAeFw0yNDAxMzEyMzAxMjVaFw0yNzAxMTUy
MzAxMjVaMBAxDjAMBgNVBAMMBWtkamZnMHYwEAYHKoZIzj0CAQYFK4EEACIDYgAE
JPjEAceXXLNcm/UZdV4SPrZ95U8Xi9oOZSefOs1uAumd/bnK3v0yi1/ltg4T/kfv
HLhwgtiMOZDQR+qZNsv5Ft7VMy+0hZ/ZzOnPxGjQUemdaEBDiyioCN7AauvVYqeY
o4GkMIGhMAkGA1UdEwQCMAAwHQYDVR0OBBYEFLfbrnhp7o8xH+0qygwhzH+yHV/n
MFMGA1UdIwRMMEqAFHkou2qp+tMmknycpxoK7V4nnp3CoRykGjAYMRYwFAYDVQQD
DA03NC4yMzUuNDIuMTAwghRVQWwEczOfgT+atluQCK3iArouUTATBgNVHSUEDDAK
BggrBgEFBQcDAjALBgNVHQ8EBAMCB4AwCgYIKoZIzj0EAwQDaAAwZQIxAPORV3rQ
FTxlFhIG0ECPVYMeFycM2nhAEzw/93D+aVmn8rZLEeWDfC3m8M5QuyuHbwIwIk+s
l839WciAS+utAPppRk1meVpvsDvG0Plw/O21/mRpWya2TJXTzQQRnyrZpRNu
-----END CERTIFICATE-----
