Certificate:
    Data:
        Version: 3 (0x2)
        Serial Number:
            74:71:c0:1e:e9:3f:f3:94:e8:d6:6d:bb:e1:9a:f8:cd
        Signature Algorithm: ecdsa-with-SHA512
        Issuer: CN=74.235.42.100
        Validity
            Not Before: Jan 31 22:35:43 2024 GMT
            Not After : Jan 15 22:35:43 2027 GMT
        Subject: CN=profile
        Subject Public Key Info:
            Public Key Algorithm: id-ecPublicKey
                Public-Key: (384 bit)
                pub:
                    04:8b:97:f7:ec:14:af:51:5c:51:29:3a:6e:88:f2:
                    1c:72:7b:15:ad:6e:d4:95:80:1e:98:8a:b8:2b:65:
                    9d:28:12:cf:cd:d3:a7:2a:6d:82:5f:f2:9c:c0:dc:
                    b7:b0:ee:91:2d:de:be:56:0e:b3:ab:e9:cc:be:83:
                    28:b9:6d:6a:e1:f8:ce:5a:f7:d9:dd:71:2c:db:65:
                    f5:38:ed:6d:88:54:9a:3e:b6:29:fd:89:5a:cf:53:
                    bb:6b:54:af:c9:86:86
                ASN1 OID: secp384r1
                NIST CURVE: P-384
        X509v3 extensions:
            X509v3 Basic Constraints: 
                CA:FALSE
            X509v3 Subject Key Identifier: 
                94:03:13:32:ED:FD:47:B9:35:89:C7:45:76:75:D2:95:FC:1C:82:C2
            X509v3 Authority Key Identifier: 
                keyid:79:28:BB:6A:A9:FA:D3:26:92:7C:9C:A7:1A:0A:ED:5E:27:9E:9D:C2
                DirName:/CN=74.235.42.100
                serial:55:41:6C:04:73:33:9F:81:3F:9A:B6:5B:90:08:AD:E2:02:BA:2E:51

            X509v3 Extended Key Usage: 
                TLS Web Client Authentication
            X509v3 Key Usage: 
                Digital Signature
    Signature Algorithm: ecdsa-with-SHA512
         30:64:02:30:3c:7d:80:26:e2:0d:99:0c:3c:fb:ac:7f:9e:5d:
         a3:32:ab:69:51:b9:70:f8:46:c2:a7:20:1c:19:6e:74:76:6d:
         a1:c5:bb:6a:e8:f6:cc:b5:a1:c5:35:a3:8d:e2:8d:f0:02:30:
         2d:27:a8:0a:a3:30:2d:d2:6b:8a:65:ef:03:18:34:6b:98:b1:
         ac:c2:13:59:ab:54:3b:c8:97:bb:2d:b2:bd:52:2d:13:2e:1e:
         77:3c:b7:d3:39:34:30:27:2c:cf:94:46
-----BEGIN CERTIFICATE-----
MIICCTCCAZCgAwIBAgIQdHHAHuk/85To1m274Zr4zTAKBggqhkjOPQQDBDAYMRYw
FAYDVQQDDA03NC4yMzUuNDIuMTAwMB4XDTI0MDEzMTIyMzU0M1oXDTI3MDExNTIy
MzU0M1owEjEQMA4GA1UEAwwHcHJvZmlsZTB2MBAGByqGSM49AgEGBSuBBAAiA2IA
BIuX9+wUr1FcUSk6bojyHHJ7Fa1u1JWAHpiKuCtlnSgSz83Tpyptgl/ynMDct7Du
kS3evlYOs6vpzL6DKLltauH4zlr32d1xLNtl9TjtbYhUmj62Kf2JWs9Tu2tUr8mG
hqOBpDCBoTAJBgNVHRMEAjAAMB0GA1UdDgQWBBSUAxMy7f1HuTWJx0V2ddKV/ByC
wjBTBgNVHSMETDBKgBR5KLtqqfrTJpJ8nKcaCu1eJ56dwqEcpBowGDEWMBQGA1UE
AwwNNzQuMjM1LjQyLjEwMIIUVUFsBHMzn4E/mrZbkAit4gK6LlEwEwYDVR0lBAww
CgYIKwYBBQUHAwIwCwYDVR0PBAQDAgeAMAoGCCqGSM49BAMEA2cAMGQCMDx9gCbi
DZkMPPusf55dozKraVG5cPhGwqcgHBludHZtocW7auj2zLWhxTWjjeKN8AIwLSeo
CqMwLdJrimXvAxg0a5ixrMITWatUO8iXuy2yvVItEy4edzy30zk0MCcsz5RG
-----END CERTIFICATE-----
