Certificate:
    Data:
        Version: 3 (0x2)
        Serial Number:
            22:08:5f:94:bd:73:3a:08:47:17:2f:f8:f8:6e:6b:2d
        Signature Algorithm: ecdsa-with-SHA512
        Issuer: CN=74.235.42.100
        Validity
            Not Before: Jan 31 22:10:11 2024 GMT
            Not After : Jan 15 22:10:11 2027 GMT
        Subject: CN=Jmeky
        Subject Public Key Info:
            Public Key Algorithm: id-ecPublicKey
                Public-Key: (384 bit)
                pub:
                    04:34:ec:d6:a9:e2:20:9d:6d:3e:e0:14:10:fd:05:
                    f3:74:94:47:ad:4e:a0:29:0f:12:d5:52:1f:62:77:
                    5f:03:7f:96:74:62:f5:55:9e:82:71:3f:8b:60:98:
                    8b:2b:55:a8:fa:45:5c:b6:e0:58:4e:77:62:c8:5b:
                    1f:4b:b8:06:a3:6a:c4:dd:28:35:3c:42:56:79:c7:
                    ad:91:bf:0b:ec:f5:b0:71:62:15:63:84:44:e1:c9:
                    e4:e4:33:18:38:48:4b
                ASN1 OID: secp384r1
                NIST CURVE: P-384
        X509v3 extensions:
            X509v3 Basic Constraints: 
                CA:FALSE
            X509v3 Subject Key Identifier: 
                DB:02:BB:7A:34:64:62:06:96:51:C5:10:52:43:C9:48:8F:71:58:AE
            X509v3 Authority Key Identifier: 
                keyid:79:28:BB:6A:A9:FA:D3:26:92:7C:9C:A7:1A:0A:ED:5E:27:9E:9D:C2
                DirName:/CN=74.235.42.100
                serial:55:41:6C:04:73:33:9F:81:3F:9A:B6:5B:90:08:AD:E2:02:BA:2E:51

            X509v3 Extended Key Usage: 
                TLS Web Client Authentication
            X509v3 Key Usage: 
                Digital Signature
    Signature Algorithm: ecdsa-with-SHA512
         30:66:02:31:00:e1:f6:ca:44:64:2b:17:5e:d8:3c:94:13:9b:
         4e:d7:8a:23:f7:98:4d:b6:91:90:eb:7d:9d:0d:ff:88:e7:d2:
         53:a9:bf:89:56:73:ee:24:a5:9f:61:dc:2b:9e:c1:e1:7d:02:
         31:00:9f:a9:0d:8a:a1:73:81:df:d4:29:36:03:f2:8b:9c:b0:
         58:97:52:36:89:01:36:8e:9f:03:dd:37:56:2a:4a:be:42:14:
         fa:78:3d:89:08:52:68:b9:4b:0f:f8:c6:0b:82
-----BEGIN CERTIFICATE-----
MIICCTCCAY6gAwIBAgIQIghflL1zOghHFy/4+G5rLTAKBggqhkjOPQQDBDAYMRYw
FAYDVQQDDA03NC4yMzUuNDIuMTAwMB4XDTI0MDEzMTIyMTAxMVoXDTI3MDExNTIy
MTAxMVowEDEOMAwGA1UEAwwFSm1la3kwdjAQBgcqhkjOPQIBBgUrgQQAIgNiAAQ0
7Nap4iCdbT7gFBD9BfN0lEetTqApDxLVUh9id18Df5Z0YvVVnoJxP4tgmIsrVaj6
RVy24FhOd2LIWx9LuAajasTdKDU8QlZ5x62Rvwvs9bBxYhVjhEThyeTkMxg4SEuj
gaQwgaEwCQYDVR0TBAIwADAdBgNVHQ4EFgQU2wK7ejRkYgaWUcUQUkPJSI9xWK4w
UwYDVR0jBEwwSoAUeSi7aqn60yaSfJynGgrtXieencKhHKQaMBgxFjAUBgNVBAMM
DTc0LjIzNS40Mi4xMDCCFFVBbARzM5+BP5q2W5AIreICui5RMBMGA1UdJQQMMAoG
CCsGAQUFBwMCMAsGA1UdDwQEAwIHgDAKBggqhkjOPQQDBANpADBmAjEA4fbKRGQr
F17YPJQTm07XiiP3mE22kZDrfZ0N/4jn0lOpv4lWc+4kpZ9h3CueweF9AjEAn6kN
iqFzgd/UKTYD8oucsFiXUjaJATaOnwPdN1YqSr5CFPp4PYkIUmi5Sw/4xguC
-----END CERTIFICATE-----
