Certificate:
    Data:
        Version: 3 (0x2)
        Serial Number:
            90:50:61:37:95:2b:1d:d5:a2:15:f5:d1:a9:70:1e:c7
        Signature Algorithm: ecdsa-with-SHA512
        Issuer: CN=74.235.42.100
        Validity
            Not Before: Jan 31 22:10:20 2024 GMT
            Not After : Jan 15 22:10:20 2027 GMT
        Subject: CN=Jmeky
        Subject Public Key Info:
            Public Key Algorithm: id-ecPublicKey
                Public-Key: (384 bit)
                pub:
                    04:db:e5:65:43:87:41:0a:4f:af:0e:5f:e7:d6:69:
                    d8:19:ff:23:1c:00:7f:72:7d:3b:2e:32:52:f6:0b:
                    62:b8:7c:d4:48:37:36:87:cd:3e:26:eb:00:f8:da:
                    38:ea:c8:cd:07:83:d6:75:8c:5f:95:a4:61:ae:da:
                    b9:37:f3:ba:34:db:d3:34:e1:e9:3a:91:81:e7:02:
                    28:77:bf:8d:2a:b1:4d:16:cd:e5:74:57:3b:fd:b4:
                    b7:80:c0:e8:d5:f5:24
                ASN1 OID: secp384r1
                NIST CURVE: P-384
        X509v3 extensions:
            X509v3 Basic Constraints: 
                CA:FALSE
            X509v3 Subject Key Identifier: 
                64:9D:B3:69:F2:54:07:26:84:79:D0:F8:50:DB:42:E4:F7:00:13:84
            X509v3 Authority Key Identifier: 
                keyid:79:28:BB:6A:A9:FA:D3:26:92:7C:9C:A7:1A:0A:ED:5E:27:9E:9D:C2
                DirName:/CN=74.235.42.100
                serial:55:41:6C:04:73:33:9F:81:3F:9A:B6:5B:90:08:AD:E2:02:BA:2E:51

            X509v3 Extended Key Usage: 
                TLS Web Client Authentication
            X509v3 Key Usage: 
                Digital Signature
    Signature Algorithm: ecdsa-with-SHA512
         30:65:02:30:3c:92:f9:8c:6b:9a:07:05:86:8d:bb:7f:ad:c8:
         1c:b0:df:f0:41:0e:f8:7e:79:68:05:2b:ce:dd:13:2d:dc:64:
         1f:93:c2:11:eb:6f:db:66:e4:11:c9:df:38:98:9a:34:02:31:
         00:e0:43:90:8e:db:00:c1:c6:3a:85:da:bd:5b:92:89:fc:ac:
         48:d8:ce:cc:d8:0a:03:04:01:67:df:1b:17:30:01:67:5d:3a:
         ad:d4:83:c8:4e:29:d8:bb:16:29:a1:9b:1e
-----BEGIN CERTIFICATE-----
MIICCTCCAY+gAwIBAgIRAJBQYTeVKx3VohX10alwHscwCgYIKoZIzj0EAwQwGDEW
MBQGA1UEAwwNNzQuMjM1LjQyLjEwMDAeFw0yNDAxMzEyMjEwMjBaFw0yNzAxMTUy
MjEwMjBaMBAxDjAMBgNVBAMMBUptZWt5MHYwEAYHKoZIzj0CAQYFK4EEACIDYgAE
2+VlQ4dBCk+vDl/n1mnYGf8jHAB/cn07LjJS9gtiuHzUSDc2h80+JusA+No46sjN
B4PWdYxflaRhrtq5N/O6NNvTNOHpOpGB5wIod7+NKrFNFs3ldFc7/bS3gMDo1fUk
o4GkMIGhMAkGA1UdEwQCMAAwHQYDVR0OBBYEFGSds2nyVAcmhHnQ+FDbQuT3ABOE
MFMGA1UdIwRMMEqAFHkou2qp+tMmknycpxoK7V4nnp3CoRykGjAYMRYwFAYDVQQD
DA03NC4yMzUuNDIuMTAwghRVQWwEczOfgT+atluQCK3iArouUTATBgNVHSUEDDAK
BggrBgEFBQcDAjALBgNVHQ8EBAMCB4AwCgYIKoZIzj0EAwQDaAAwZQIwPJL5jGua
BwWGjbt/rcgcsN/wQQ74fnloBSvO3RMt3GQfk8IR62/bZuQRyd84mJo0AjEA4EOQ
jtsAwcY6hdq9W5KJ/KxI2M7M2AoDBAFn3xsXMAFnXTqt1IPITinYuxYpoZse
-----END CERTIFICATE-----
