Certificate:
    Data:
        Version: 3 (0x2)
        Serial Number:
            c0:13:88:cb:19:07:8b:e7:42:6f:ce:97:cd:fd:d2:0f
        Signature Algorithm: ecdsa-with-SHA512
        Issuer: CN=74.235.42.100
        Validity
            Not Before: Jan 31 23:18:02 2024 GMT
            Not After : Jan 15 23:18:02 2027 GMT
        Subject: CN=bbbbbbbbbb
        Subject Public Key Info:
            Public Key Algorithm: id-ecPublicKey
                Public-Key: (384 bit)
                pub:
                    04:20:f4:a5:42:fd:ea:9b:1d:17:30:5c:59:a8:14:
                    62:f1:8e:3d:1a:22:a3:bb:19:12:fb:19:45:a9:9d:
                    02:8a:3a:23:88:62:cf:66:83:12:e2:67:f5:0a:1f:
                    21:08:49:71:6a:ac:e5:81:34:17:0a:b6:8f:1c:d9:
                    ff:c4:2a:d5:63:ba:99:20:64:df:a3:aa:b7:4b:bb:
                    5d:d8:da:c8:b2:cb:71:07:b0:21:8a:43:c4:e4:ec:
                    04:a6:df:b7:99:90:37
                ASN1 OID: secp384r1
                NIST CURVE: P-384
        X509v3 extensions:
            X509v3 Basic Constraints: 
                CA:FALSE
            X509v3 Subject Key Identifier: 
                79:68:72:CF:9F:73:13:F0:4C:3E:0D:42:CD:D7:C3:4C:B5:4C:AC:7B
            X509v3 Authority Key Identifier: 
                keyid:79:28:BB:6A:A9:FA:D3:26:92:7C:9C:A7:1A:0A:ED:5E:27:9E:9D:C2
                DirName:/CN=74.235.42.100
                serial:55:41:6C:04:73:33:9F:81:3F:9A:B6:5B:90:08:AD:E2:02:BA:2E:51

            X509v3 Extended Key Usage: 
                TLS Web Client Authentication
            X509v3 Key Usage: 
                Digital Signature
    Signature Algorithm: ecdsa-with-SHA512
         30:65:02:30:4d:77:bd:0a:d3:9d:a0:05:56:2b:10:34:ab:9f:
         c0:6c:ea:ff:75:1b:98:44:7f:3a:76:d9:44:48:f6:2f:37:82:
         df:34:46:a2:7e:1e:a2:6d:87:d0:b8:e4:bc:b3:cd:05:02:31:
         00:fe:ad:46:78:2a:c0:88:51:2a:f5:6b:ab:aa:62:cb:27:95:
         d0:da:45:0f:d8:a6:87:98:07:66:22:37:0f:6b:6e:cf:81:00:
         71:76:a2:28:4a:af:7c:1e:c8:03:05:67:fc
-----BEGIN CERTIFICATE-----
MIICDjCCAZSgAwIBAgIRAMATiMsZB4vnQm/Ol8390g8wCgYIKoZIzj0EAwQwGDEW
MBQGA1UEAwwNNzQuMjM1LjQyLjEwMDAeFw0yNDAxMzEyMzE4MDJaFw0yNzAxMTUy
MzE4MDJaMBUxEzARBgNVBAMMCmJiYmJiYmJiYmIwdjAQBgcqhkjOPQIBBgUrgQQA
IgNiAAQg9KVC/eqbHRcwXFmoFGLxjj0aIqO7GRL7GUWpnQKKOiOIYs9mgxLiZ/UK
HyEISXFqrOWBNBcKto8c2f/EKtVjupkgZN+jqrdLu13Y2siyy3EHsCGKQ8Tk7ASm
37eZkDejgaQwgaEwCQYDVR0TBAIwADAdBgNVHQ4EFgQUeWhyz59zE/BMPg1CzdfD
TLVMrHswUwYDVR0jBEwwSoAUeSi7aqn60yaSfJynGgrtXieencKhHKQaMBgxFjAU
BgNVBAMMDTc0LjIzNS40Mi4xMDCCFFVBbARzM5+BP5q2W5AIreICui5RMBMGA1Ud
JQQMMAoGCCsGAQUFBwMCMAsGA1UdDwQEAwIHgDAKBggqhkjOPQQDBANoADBlAjBN
d70K052gBVYrEDSrn8Bs6v91G5hEfzp22URI9i83gt80RqJ+HqJth9C45LyzzQUC
MQD+rUZ4KsCIUSr1a6uqYssnldDaRQ/YpoeYB2YiNw9rbs+BAHF2oihKr3weyAMF
Z/w=
-----END CERTIFICATE-----
