Certificate:
    Data:
        Version: 3 (0x2)
        Serial Number:
            f2:d7:0e:05:34:b9:f9:11:1a:45:a4:00:9d:eb:4a:3e
        Signature Algorithm: ecdsa-with-SHA512
        Issuer: CN=74.235.42.100
        Validity
            Not Before: Jan 31 22:08:49 2024 GMT
            Not After : Jan 15 22:08:49 2027 GMT
        Subject: CN=Jmeky
        Subject Public Key Info:
            Public Key Algorithm: id-ecPublicKey
                Public-Key: (384 bit)
                pub:
                    04:0d:5b:dd:f0:a2:dd:a0:d3:28:4a:de:3c:ad:9f:
                    67:fe:57:03:ad:52:37:48:9a:63:74:7a:cc:92:a4:
                    3b:d5:5f:8c:2c:bd:e3:31:53:af:35:1d:1b:ad:08:
                    3b:2b:5e:18:c6:1c:39:35:8b:a2:45:3a:9a:b9:f9:
                    9a:55:dc:fd:c8:25:cc:6f:b1:2c:69:01:e8:44:cf:
                    fb:ca:a9:13:92:a6:40:72:53:60:a1:c0:87:bf:c6:
                    52:37:39:16:63:27:d8
                ASN1 OID: secp384r1
                NIST CURVE: P-384
        X509v3 extensions:
            X509v3 Basic Constraints: 
                CA:FALSE
            X509v3 Subject Key Identifier: 
                DE:73:D5:CF:32:11:A5:6A:BB:09:52:4D:F0:30:30:2A:0D:BE:B5:C8
            X509v3 Authority Key Identifier: 
                keyid:79:28:BB:6A:A9:FA:D3:26:92:7C:9C:A7:1A:0A:ED:5E:27:9E:9D:C2
                DirName:/CN=74.235.42.100
                serial:55:41:6C:04:73:33:9F:81:3F:9A:B6:5B:90:08:AD:E2:02:BA:2E:51

            X509v3 Extended Key Usage: 
                TLS Web Client Authentication
            X509v3 Key Usage: 
                Digital Signature
    Signature Algorithm: ecdsa-with-SHA512
         30:64:02:30:25:7e:82:a9:67:c4:0d:b0:76:5a:f1:a7:b0:c7:
         c7:3c:70:e0:89:39:7f:43:e9:a2:86:89:f6:37:a9:7e:80:e8:
         2a:61:87:e4:32:e1:0d:b2:8b:4c:21:8a:4b:91:28:e6:02:30:
         74:f8:0e:af:34:82:90:c2:f9:eb:e4:51:cd:ba:59:d5:74:6b:
         3a:46:b6:27:1b:5a:d0:e5:71:b9:d5:1a:33:a4:f6:27:d0:8e:
         8d:cf:dd:79:7b:6c:18:e8:a8:bc:bf:32
-----BEGIN CERTIFICATE-----
MIICCDCCAY+gAwIBAgIRAPLXDgU0ufkRGkWkAJ3rSj4wCgYIKoZIzj0EAwQwGDEW
MBQGA1UEAwwNNzQuMjM1LjQyLjEwMDAeFw0yNDAxMzEyMjA4NDlaFw0yNzAxMTUy
MjA4NDlaMBAxDjAMBgNVBAMMBUptZWt5MHYwEAYHKoZIzj0CAQYFK4EEACIDYgAE
DVvd8KLdoNMoSt48rZ9n/lcDrVI3SJpjdHrMkqQ71V+MLL3jMVOvNR0brQg7K14Y
xhw5NYuiRTqaufmaVdz9yCXMb7EsaQHoRM/7yqkTkqZAclNgocCHv8ZSNzkWYyfY
o4GkMIGhMAkGA1UdEwQCMAAwHQYDVR0OBBYEFN5z1c8yEaVquwlSTfAwMCoNvrXI
MFMGA1UdIwRMMEqAFHkou2qp+tMmknycpxoK7V4nnp3CoRykGjAYMRYwFAYDVQQD
DA03NC4yMzUuNDIuMTAwghRVQWwEczOfgT+atluQCK3iArouUTATBgNVHSUEDDAK
BggrBgEFBQcDAjALBgNVHQ8EBAMCB4AwCgYIKoZIzj0EAwQDZwAwZAIwJX6CqWfE
DbB2WvGnsMfHPHDgiTl/Q+mihon2N6l+gOgqYYfkMuENsotMIYpLkSjmAjB0+A6v
NIKQwvnr5FHNulnVdGs6RrYnG1rQ5XG51RozpPYn0I6Nz915e2wY6Ki8vzI=
-----END CERTIFICATE-----
